target datalayout = "e-m:e-p270:32:32-p271:32:32-p272:64:64-i64:64-i128:128-f80:128-n8:16:32:64-S128"
target triple = "x86_64-pc-linux-gnu"

%struct.Gia_ManEra_t_ = type { ptr, i32, i32, ptr, ptr, ptr, ptr, i32, ptr, ptr, i32, ptr }
%struct.Vec_Ptr_t_ = type { i32, i32, ptr }
%struct.Gia_ObjEra_t_ = type { i32, i32, i32, i32, [0 x i32] }

; Function Attrs: nounwind uwtable
define internal ptr @Gia_ManEraState(ptr noundef %0, i32 noundef %1) #0 {
  %3 = alloca ptr, align 8
  %4 = alloca i32, align 4
  store ptr %0, ptr %3, align 8
  store i32 %1, ptr %4, align 4
  %5 = load ptr, ptr %3, align 8
  %6 = getelementptr inbounds %struct.Gia_ManEra_t_, ptr %5, i32 0, i32 5
  %7 = load ptr, ptr %6, align 8
  %8 = load i32, ptr %4, align 4
  %9 = call ptr @Vec_PtrEntry(ptr noundef %7, i32 noundef %8)
  ret ptr %9
}

; Function Attrs: nounwind uwtable
define internal ptr @Vec_PtrEntry(ptr noundef %0, i32 noundef %1) #0 {
  %3 = alloca ptr, align 8
  %4 = alloca i32, align 4
  store ptr %0, ptr %3, align 8
  store i32 %1, ptr %4, align 4
  %5 = load ptr, ptr %3, align 8
  %6 = getelementptr inbounds %struct.Vec_Ptr_t_, ptr %5, i32 0, i32 2
  %7 = load ptr, ptr %6, align 8
  %8 = load i32, ptr %4, align 4
  %9 = sext i32 %8 to i64
  %10 = getelementptr inbounds ptr, ptr %7, i64 %9
  %11 = load ptr, ptr %10, align 8
  ret ptr %11
}

; Function Attrs: nounwind uwtable
define internal i32 @Vec_PtrSize(ptr noundef %0) #0 {
  %2 = alloca ptr, align 8
  store ptr %0, ptr %2, align 8
  %3 = load ptr, ptr %2, align 8
  %4 = getelementptr inbounds %struct.Vec_Ptr_t_, ptr %3, i32 0, i32 1
  %5 = load i32, ptr %4, align 4
  ret i32 %5
}

; Function Attrs: nounwind uwtable
define internal ptr @Vec_PtrEntryLast(ptr noundef %0) #0 {
  %2 = alloca ptr, align 8
  store ptr %0, ptr %2, align 8
  %3 = load ptr, ptr %2, align 8
  %4 = getelementptr inbounds %struct.Vec_Ptr_t_, ptr %3, i32 0, i32 2
  %5 = load ptr, ptr %4, align 8
  %6 = load ptr, ptr %2, align 8
  %7 = getelementptr inbounds %struct.Vec_Ptr_t_, ptr %6, i32 0, i32 1
  %8 = load i32, ptr %7, align 4
  %9 = sub nsw i32 %8, 1
  %10 = sext i32 %9 to i64
  %11 = getelementptr inbounds ptr, ptr %5, i64 %10
  %12 = load ptr, ptr %11, align 8
  ret ptr %12
}

; Function Attrs: nounwind uwtable
define i32 @Gia_ManCountDepth(ptr noundef %0) #0 {
  %2 = alloca ptr, align 8
  %3 = alloca ptr, align 8
  %4 = alloca i32, align 4
  store ptr %0, ptr %2, align 8
  store i32 0, ptr %4, align 4
  %5 = load ptr, ptr %2, align 8
  %6 = getelementptr inbounds %struct.Gia_ManEra_t_, ptr %5, i32 0, i32 5
  %7 = load ptr, ptr %6, align 8
  %8 = call ptr @Vec_PtrEntryLast(ptr noundef %7)
  store ptr %8, ptr %3, align 8
  %9 = load ptr, ptr %3, align 8
  %10 = getelementptr inbounds %struct.Gia_ObjEra_t_, ptr %9, i32 0, i32 2
  %11 = load i32, ptr %10, align 4
  %12 = icmp eq i32 %11, 0
  br i1 %12, label %13, label %29

13:                                               ; preds = %1
  %14 = load ptr, ptr %2, align 8
  %15 = getelementptr inbounds %struct.Gia_ManEra_t_, ptr %14, i32 0, i32 5
  %16 = load ptr, ptr %15, align 8
  %17 = call i32 @Vec_PtrSize(ptr noundef %16)
  %18 = icmp sgt i32 %17, 3
  br i1 %18, label %19, label %29

19:                                               ; preds = %13
  %20 = load ptr, ptr %2, align 8
  %21 = getelementptr inbounds %struct.Gia_ManEra_t_, ptr %20, i32 0, i32 5
  %22 = load ptr, ptr %21, align 8
  %23 = load ptr, ptr %2, align 8
  %24 = getelementptr inbounds %struct.Gia_ManEra_t_, ptr %23, i32 0, i32 5
  %25 = load ptr, ptr %24, align 8
  %26 = call i32 @Vec_PtrSize(ptr noundef %25)
  %27 = sub nsw i32 %26, 2
  %28 = call ptr @Vec_PtrEntry(ptr noundef %22, i32 noundef %27)
  store ptr %28, ptr %3, align 8
  br label %29

29:                                               ; preds = %19, %13, %1
  br label %30

30:                                               ; preds = %48, %29
  %31 = load ptr, ptr %3, align 8
  %32 = icmp ne ptr %31, null
  br i1 %32, label %33, label %50

33:                                               ; preds = %30
  %34 = load i32, ptr %4, align 4
  %35 = add nsw i32 %34, 1
  store i32 %35, ptr %4, align 4
  br label %36

36:                                               ; preds = %33
  %37 = load ptr, ptr %3, align 8
  %38 = getelementptr inbounds %struct.Gia_ObjEra_t_, ptr %37, i32 0, i32 2
  %39 = load i32, ptr %38, align 4
  %40 = icmp ne i32 %39, 0
  br i1 %40, label %41, label %47

41:                                               ; preds = %36
  %42 = load ptr, ptr %2, align 8
  %43 = load ptr, ptr %3, align 8
  %44 = getelementptr inbounds %struct.Gia_ObjEra_t_, ptr %43, i32 0, i32 2
  %45 = load i32, ptr %44, align 4
  %46 = call ptr @Gia_ManEraState(ptr noundef %42, i32 noundef %45)
  br label %48

47:                                               ; preds = %36
  br label %48

48:                                               ; preds = %47, %41
  %49 = phi ptr [ %46, %41 ], [ null, %47 ]
  store ptr %49, ptr %3, align 8
  br label %30, !llvm.loop !25

50:                                               ; preds = %30
  %51 = load i32, ptr %4, align 4
  ret i32 %51
}