; Function Attrs: nofree norecurse nosync nounwind memory(read, inaccessiblemem: none) uwtable
define i32 @Gia_ManCountDepth(ptr noundef readonly captures(none) %0) local_unnamed_addr #9 {
  %2 = getelementptr inbounds nuw i8, ptr %0, i64 32
  %3 = load ptr, ptr %2, align 8
  %4 = getelementptr i8, ptr %3, i64 4
  %.val16 = load i32, ptr %4, align 4
  %5 = getelementptr i8, ptr %3, i64 8
  %.val17 = load ptr, ptr %5, align 8
  %6 = sext i32 %.val16 to i64
  %7 = getelementptr ptr, ptr %.val17, i64 %6
  %8 = getelementptr i8, ptr %7, i64 -8
  %9 = load ptr, ptr %8, align 8
  %10 = getelementptr inbounds nuw i8, ptr %9, i64 8
  %11 = load i32, ptr %10, align 4
  %12 = icmp eq i32 %11, 0
  %13 = icmp sgt i32 %.val16, 3
  %or.cond = and i1 %13, %12
  br i1 %or.cond, label %14, label %.lr.ph.preheader

14:                                               ; preds = %1
  %15 = zext nneg i32 %.val16 to i64
  %16 = getelementptr ptr, ptr %.val17, i64 %15
  %17 = getelementptr i8, ptr %16, i64 -16
  %18 = load ptr, ptr %17, align 8
  %.not18 = icmp eq ptr %18, null
  br i1 %.not18, label %._crit_edge, label %.lr.ph.preheader

.lr.ph.preheader:                                 ; preds = %1, %14
  %.119.ph = phi ptr [ %18, %14 ], [ %9, %1 ]
  br label %.lr.ph

.lr.ph:                                           ; preds = %.lr.ph.preheader, %22
  %.020 = phi i32 [ %19, %22 ], [ 0, %.lr.ph.preheader ]
  %.119 = phi ptr [ %25, %22 ], [ %.119.ph, %.lr.ph.preheader ]
  %19 = add nuw nsw i32 %.020, 1
  %20 = getelementptr inbounds nuw i8, ptr %.119, i64 8
  %21 = load i32, ptr %20, align 4
  %.not12 = icmp eq i32 %21, 0
  br i1 %.not12, label %._crit_edge, label %22

22:                                               ; preds = %.lr.ph
  %23 = sext i32 %21 to i64
  %24 = getelementptr inbounds ptr, ptr %.val17, i64 %23
  %25 = load ptr, ptr %24, align 8
  %.not = icmp eq ptr %25, null
  br i1 %.not, label %._crit_edge, label %.lr.ph, !llvm.loop !26

._crit_edge:                                      ; preds = %.lr.ph, %22, %14
  %.0.lcssa = phi i32 [ 0, %14 ], [ %19, %22 ], [ %19, %.lr.ph ]
  ret i32 %.0.lcssa
}